; Function Attrs: mustprogress nounwind uwtable
define hidden noundef range(i32 0, 111) i32 @_ZN8JvmtiEnv19GetJNIFunctionTableEPP19JNINativeInterface_(ptr noundef nonnull align 8 dereferenceable(460) %0, ptr nocapture noundef writeonly %1) local_unnamed_addr #0 align 2 {
  %3 = tail call noundef ptr @_ZN12JvmtiEnvBase11jvmtiMallocEl(ptr noundef nonnull align 8 dereferenceable(460) %0, i64 noundef 1880) #17
  store ptr %3, ptr %1, align 8
  %4 = icmp eq ptr %3, null
  br i1 %4, label %10, label %5

5:                                                ; preds = %2
  %6 = tail call align 8 ptr @llvm.threadlocal.address.p0(ptr align 8 @_ZN6Thread12_thr_currentE)
  %7 = load ptr, ptr %6, align 8
  %8 = getelementptr inbounds i8, ptr %7, i64 960
  %9 = load ptr, ptr %8, align 8
  tail call void @llvm.memcpy.p0.p0.i64(ptr noundef nonnull align 8 dereferenceable(1880) %3, ptr noundef nonnull align 8 dereferenceable(1880) %9, i64 1880, i1 false)
  br label %10

10:                                               ; preds = %2, %5
  %.0 = phi i32 [ 0, %5 ], [ 110, %2 ]
  ret i32 %.0
}